target datalayout = "e-m:e-p270:32:32-p271:32:32-p272:64:64-i64:64-i128:128-f80:128-n8:16:32:64-S128"
target triple = "x86_64-pc-linux-gnu"

; Function Attrs: mustprogress uwtable
define void @_Z14duDebugDrawArcP11duDebugDrawfffffffffjf(ptr noundef %0, float noundef %1, float noundef %2, float noundef %3, float noundef %4, float noundef %5, float noundef %6, float noundef %7, float noundef %8, float noundef %9, i32 noundef %10, float noundef %11) #2 {
  %13 = alloca ptr, align 8
  %14 = alloca float, align 4
  %15 = alloca float, align 4
  %16 = alloca float, align 4
  %17 = alloca float, align 4
  %18 = alloca float, align 4
  %19 = alloca float, align 4
  %20 = alloca float, align 4
  %21 = alloca float, align 4
  %22 = alloca float, align 4
  %23 = alloca i32, align 4
  %24 = alloca float, align 4
  store ptr %0, ptr %13, align 8
  store float %1, ptr %14, align 4
  store float %2, ptr %15, align 4
  store float %3, ptr %16, align 4
  store float %4, ptr %17, align 4
  store float %5, ptr %18, align 4
  store float %6, ptr %19, align 4
  store float %7, ptr %20, align 4
  store float %8, ptr %21, align 4
  store float %9, ptr %22, align 4
  store i32 %10, ptr %23, align 4
  store float %11, ptr %24, align 4
  %25 = load ptr, ptr %13, align 8
  %26 = icmp ne ptr %25, null
  br i1 %26, label %28, label %27

27:                                               ; preds = %12
  br label %49

28:                                               ; preds = %12
  %29 = load ptr, ptr %13, align 8
  %30 = load float, ptr %24, align 4
  %31 = load ptr, ptr %29, align 8
  %32 = getelementptr inbounds ptr, ptr %31, i64 4
  %33 = load ptr, ptr %32, align 8
  call void %33(ptr noundef nonnull align 8 dereferenceable(8) %29, i32 noundef 1, float noundef %30)
  %34 = load ptr, ptr %13, align 8
  %35 = load float, ptr %14, align 4
  %36 = load float, ptr %15, align 4
  %37 = load float, ptr %16, align 4
  %38 = load float, ptr %17, align 4
  %39 = load float, ptr %18, align 4
  %40 = load float, ptr %19, align 4
  %41 = load float, ptr %20, align 4
  %42 = load float, ptr %21, align 4
  %43 = load float, ptr %22, align 4
  %44 = load i32, ptr %23, align 4
  call void @_Z11duAppendArcP11duDebugDrawfffffffffj(ptr noundef %34, float noundef %35, float noundef %36, float noundef %37, float noundef %38, float noundef %39, float noundef %40, float noundef %41, float noundef %42, float noundef %43, i32 noundef %44)
  %45 = load ptr, ptr %13, align 8
  %46 = load ptr, ptr %45, align 8
  %47 = getelementptr inbounds ptr, ptr %46, i64 9
  %48 = load ptr, ptr %47, align 8
  call void %48(ptr noundef nonnull align 8 dereferenceable(8) %45)
  br label %49

49:                                               ; preds = %28, %27
  ret void
}