; Function Attrs: mustprogress uwtable
define void @_Z14duDebugDrawArcP11duDebugDrawfffffffffjf(ptr noundef %0, float noundef %1, float noundef %2, float noundef %3, float noundef %4, float noundef %5, float noundef %6, float noundef %7, float noundef %8, float noundef %9, i32 noundef %10, float noundef %11) local_unnamed_addr #4 {
  %.not = icmp eq ptr %0, null
  br i1 %.not, label %20, label %13

13:                                               ; preds = %12
  %14 = load ptr, ptr %0, align 8
  %15 = getelementptr inbounds i8, ptr %14, i64 32
  %16 = load ptr, ptr %15, align 8
  tail call void %16(ptr noundef nonnull align 8 dereferenceable(8) %0, i32 noundef 1, float noundef %11)
  tail call void @_Z11duAppendArcP11duDebugDrawfffffffffj(ptr noundef nonnull %0, float noundef %1, float noundef %2, float noundef %3, float noundef %4, float noundef %5, float noundef %6, float noundef %7, float noundef %8, float noundef %9, i32 noundef %10)
  %17 = load ptr, ptr %0, align 8
  %18 = getelementptr inbounds i8, ptr %17, i64 72
  %19 = load ptr, ptr %18, align 8
  tail call void %19(ptr noundef nonnull align 8 dereferenceable(8) %0)
  br label %20

20:                                               ; preds = %12, %13
  ret void
}